target datalayout = "e-m:e-p270:32:32-p271:32:32-p272:64:64-i64:64-i128:128-f80:128-n8:16:32:64-S128"
target triple = "x86_64-pc-linux-gnu"

%struct.Pxy_t = type { double, double }

; Function Attrs: nounwind uwtable
define internal zeroext i1 @inBetween(double %0, double %1, double %2, double %3, double %4, double %5) #0 {
  %7 = alloca i1, align 1
  %8 = alloca %struct.Pxy_t, align 8
  %9 = alloca %struct.Pxy_t, align 8
  %10 = alloca %struct.Pxy_t, align 8
  %11 = getelementptr inbounds { double, double }, ptr %8, i32 0, i32 0
  store double %0, ptr %11, align 8
  %12 = getelementptr inbounds { double, double }, ptr %8, i32 0, i32 1
  store double %1, ptr %12, align 8
  %13 = getelementptr inbounds { double, double }, ptr %9, i32 0, i32 0
  store double %2, ptr %13, align 8
  %14 = getelementptr inbounds { double, double }, ptr %9, i32 0, i32 1
  store double %3, ptr %14, align 8
  %15 = getelementptr inbounds { double, double }, ptr %10, i32 0, i32 0
  store double %4, ptr %15, align 8
  %16 = getelementptr inbounds { double, double }, ptr %10, i32 0, i32 1
  store double %5, ptr %16, align 8
  %17 = getelementptr inbounds %struct.Pxy_t, ptr %8, i32 0, i32 0
  %18 = load double, ptr %17, align 8
  %19 = getelementptr inbounds %struct.Pxy_t, ptr %9, i32 0, i32 0
  %20 = load double, ptr %19, align 8
  %21 = fcmp une double %18, %20
  br i1 %21, label %22, label %50

22:                                               ; preds = %6
  %23 = getelementptr inbounds %struct.Pxy_t, ptr %8, i32 0, i32 0
  %24 = load double, ptr %23, align 8
  %25 = getelementptr inbounds %struct.Pxy_t, ptr %10, i32 0, i32 0
  %26 = load double, ptr %25, align 8
  %27 = fcmp olt double %24, %26
  br i1 %27, label %28, label %34

28:                                               ; preds = %22
  %29 = getelementptr inbounds %struct.Pxy_t, ptr %10, i32 0, i32 0
  %30 = load double, ptr %29, align 8
  %31 = getelementptr inbounds %struct.Pxy_t, ptr %9, i32 0, i32 0
  %32 = load double, ptr %31, align 8
  %33 = fcmp olt double %30, %32
  br i1 %33, label %48, label %34

34:                                               ; preds = %28, %22
  %35 = getelementptr inbounds %struct.Pxy_t, ptr %9, i32 0, i32 0
  %36 = load double, ptr %35, align 8
  %37 = getelementptr inbounds %struct.Pxy_t, ptr %10, i32 0, i32 0
  %38 = load double, ptr %37, align 8
  %39 = fcmp olt double %36, %38
  br i1 %39, label %40, label %46

40:                                               ; preds = %34
  %41 = getelementptr inbounds %struct.Pxy_t, ptr %10, i32 0, i32 0
  %42 = load double, ptr %41, align 8
  %43 = getelementptr inbounds %struct.Pxy_t, ptr %8, i32 0, i32 0
  %44 = load double, ptr %43, align 8
  %45 = fcmp olt double %42, %44
  br label %46

46:                                               ; preds = %40, %34
  %47 = phi i1 [ false, %34 ], [ %45, %40 ]
  br label %48

48:                                               ; preds = %46, %28
  %49 = phi i1 [ true, %28 ], [ %47, %46 ]
  store i1 %49, ptr %7, align 1
  br label %78

50:                                               ; preds = %6
  %51 = getelementptr inbounds %struct.Pxy_t, ptr %8, i32 0, i32 1
  %52 = load double, ptr %51, align 8
  %53 = getelementptr inbounds %struct.Pxy_t, ptr %10, i32 0, i32 1
  %54 = load double, ptr %53, align 8
  %55 = fcmp olt double %52, %54
  br i1 %55, label %56, label %62

56:                                               ; preds = %50
  %57 = getelementptr inbounds %struct.Pxy_t, ptr %10, i32 0, i32 1
  %58 = load double, ptr %57, align 8
  %59 = getelementptr inbounds %struct.Pxy_t, ptr %9, i32 0, i32 1
  %60 = load double, ptr %59, align 8
  %61 = fcmp olt double %58, %60
  br i1 %61, label %76, label %62

62:                                               ; preds = %56, %50
  %63 = getelementptr inbounds %struct.Pxy_t, ptr %9, i32 0, i32 1
  %64 = load double, ptr %63, align 8
  %65 = getelementptr inbounds %struct.Pxy_t, ptr %10, i32 0, i32 1
  %66 = load double, ptr %65, align 8
  %67 = fcmp olt double %64, %66
  br i1 %67, label %68, label %74

68:                                               ; preds = %62
  %69 = getelementptr inbounds %struct.Pxy_t, ptr %10, i32 0, i32 1
  %70 = load double, ptr %69, align 8
  %71 = getelementptr inbounds %struct.Pxy_t, ptr %8, i32 0, i32 1
  %72 = load double, ptr %71, align 8
  %73 = fcmp olt double %70, %72
  br label %74

74:                                               ; preds = %68, %62
  %75 = phi i1 [ false, %62 ], [ %73, %68 ]
  br label %76

76:                                               ; preds = %74, %56
  %77 = phi i1 [ true, %56 ], [ %75, %74 ]
  store i1 %77, ptr %7, align 1
  br label %78

78:                                               ; preds = %76, %48
  %79 = load i1, ptr %7, align 1
  ret i1 %79
}

; Function Attrs: nounwind uwtable
define i32 @wind(double %0, double %1, double %2, double %3, double %4, double %5) #0 {
  %7 = alloca %struct.Pxy_t, align 8
  %8 = alloca %struct.Pxy_t, align 8
  %9 = alloca %struct.Pxy_t, align 8
  %10 = alloca double, align 8
  %11 = getelementptr inbounds { double, double }, ptr %7, i32 0, i32 0
  store double %0, ptr %11, align 8
  %12 = getelementptr inbounds { double, double }, ptr %7, i32 0, i32 1
  store double %1, ptr %12, align 8
  %13 = getelementptr inbounds { double, double }, ptr %8, i32 0, i32 0
  store double %2, ptr %13, align 8
  %14 = getelementptr inbounds { double, double }, ptr %8, i32 0, i32 1
  store double %3, ptr %14, align 8
  %15 = getelementptr inbounds { double, double }, ptr %9, i32 0, i32 0
  store double %4, ptr %15, align 8
  %16 = getelementptr inbounds { double, double }, ptr %9, i32 0, i32 1
  store double %5, ptr %16, align 8
  %17 = getelementptr inbounds %struct.Pxy_t, ptr %7, i32 0, i32 1
  %18 = load double, ptr %17, align 8
  %19 = getelementptr inbounds %struct.Pxy_t, ptr %8, i32 0, i32 1
  %20 = load double, ptr %19, align 8
  %21 = fsub double %18, %20
  %22 = getelementptr inbounds %struct.Pxy_t, ptr %9, i32 0, i32 0
  %23 = load double, ptr %22, align 8
  %24 = getelementptr inbounds %struct.Pxy_t, ptr %8, i32 0, i32 0
  %25 = load double, ptr %24, align 8
  %26 = fsub double %23, %25
  %27 = getelementptr inbounds %struct.Pxy_t, ptr %9, i32 0, i32 1
  %28 = load double, ptr %27, align 8
  %29 = getelementptr inbounds %struct.Pxy_t, ptr %8, i32 0, i32 1
  %30 = load double, ptr %29, align 8
  %31 = fsub double %28, %30
  %32 = getelementptr inbounds %struct.Pxy_t, ptr %7, i32 0, i32 0
  %33 = load double, ptr %32, align 8
  %34 = getelementptr inbounds %struct.Pxy_t, ptr %8, i32 0, i32 0
  %35 = load double, ptr %34, align 8
  %36 = fsub double %33, %35
  %37 = fmul double %31, %36
  %38 = fneg double %37
  %39 = call double @llvm.fmuladd.f64(double %21, double %26, double %38)
  store double %39, ptr %10, align 8
  %40 = load double, ptr %10, align 8
  %41 = fcmp ogt double %40, 1.000000e-04
  br i1 %41, label %42, label %43

42:                                               ; preds = %6
  br label %47

43:                                               ; preds = %6
  %44 = load double, ptr %10, align 8
  %45 = fcmp olt double %44, -1.000000e-04
  %46 = select i1 %45, i32 -1, i32 0
  br label %47

47:                                               ; preds = %43, %42
  %48 = phi i32 [ 1, %42 ], [ %46, %43 ]
  ret i32 %48
}

; Function Attrs: nounwind uwtable
define internal zeroext i1 @intersect(double %0, double %1, double %2, double %3, double %4, double %5, double %6, double %7) #0 {
  %9 = alloca i1, align 1
  %10 = alloca %struct.Pxy_t, align 8
  %11 = alloca %struct.Pxy_t, align 8
  %12 = alloca %struct.Pxy_t, align 8
  %13 = alloca %struct.Pxy_t, align 8
  %14 = alloca i32, align 4
  %15 = alloca i32, align 4
  %16 = alloca i32, align 4
  %17 = alloca i32, align 4
  %18 = getelementptr inbounds { double, double }, ptr %10, i32 0, i32 0
  store double %0, ptr %18, align 8
  %19 = getelementptr inbounds { double, double }, ptr %10, i32 0, i32 1
  store double %1, ptr %19, align 8
  %20 = getelementptr inbounds { double, double }, ptr %11, i32 0, i32 0
  store double %2, ptr %20, align 8
  %21 = getelementptr inbounds { double, double }, ptr %11, i32 0, i32 1
  store double %3, ptr %21, align 8
  %22 = getelementptr inbounds { double, double }, ptr %12, i32 0, i32 0
  store double %4, ptr %22, align 8
  %23 = getelementptr inbounds { double, double }, ptr %12, i32 0, i32 1
  store double %5, ptr %23, align 8
  %24 = getelementptr inbounds { double, double }, ptr %13, i32 0, i32 0
  store double %6, ptr %24, align 8
  %25 = getelementptr inbounds { double, double }, ptr %13, i32 0, i32 1
  store double %7, ptr %25, align 8
  %26 = getelementptr inbounds { double, double }, ptr %10, i32 0, i32 0
  %27 = load double, ptr %26, align 8
  %28 = getelementptr inbounds { double, double }, ptr %10, i32 0, i32 1
  %29 = load double, ptr %28, align 8
  %30 = getelementptr inbounds { double, double }, ptr %11, i32 0, i32 0
  %31 = load double, ptr %30, align 8
  %32 = getelementptr inbounds { double, double }, ptr %11, i32 0, i32 1
  %33 = load double, ptr %32, align 8
  %34 = getelementptr inbounds { double, double }, ptr %12, i32 0, i32 0
  %35 = load double, ptr %34, align 8
  %36 = getelementptr inbounds { double, double }, ptr %12, i32 0, i32 1
  %37 = load double, ptr %36, align 8
  %38 = call i32 @wind(double %27, double %29, double %31, double %33, double %35, double %37)
  store i32 %38, ptr %14, align 4
  %39 = load i32, ptr %14, align 4
  %40 = icmp eq i32 %39, 0
  br i1 %40, label %41, label %56

41:                                               ; preds = %8
  %42 = getelementptr inbounds { double, double }, ptr %10, i32 0, i32 0
  %43 = load double, ptr %42, align 8
  %44 = getelementptr inbounds { double, double }, ptr %10, i32 0, i32 1
  %45 = load double, ptr %44, align 8
  %46 = getelementptr inbounds { double, double }, ptr %11, i32 0, i32 0
  %47 = load double, ptr %46, align 8
  %48 = getelementptr inbounds { double, double }, ptr %11, i32 0, i32 1
  %49 = load double, ptr %48, align 8
  %50 = getelementptr inbounds { double, double }, ptr %12, i32 0, i32 0
  %51 = load double, ptr %50, align 8
  %52 = getelementptr inbounds { double, double }, ptr %12, i32 0, i32 1
  %53 = load double, ptr %52, align 8
  %54 = call zeroext i1 @inBetween(double %43, double %45, double %47, double %49, double %51, double %53)
  br i1 %54, label %55, label %56

55:                                               ; preds = %41
  store i1 true, ptr %9, align 1
  br label %125

56:                                               ; preds = %41, %8
  %57 = getelementptr inbounds { double, double }, ptr %10, i32 0, i32 0
  %58 = load double, ptr %57, align 8
  %59 = getelementptr inbounds { double, double }, ptr %10, i32 0, i32 1
  %60 = load double, ptr %59, align 8
  %61 = getelementptr inbounds { double, double }, ptr %11, i32 0, i32 0
  %62 = load double, ptr %61, align 8
  %63 = getelementptr inbounds { double, double }, ptr %11, i32 0, i32 1
  %64 = load double, ptr %63, align 8
  %65 = getelementptr inbounds { double, double }, ptr %13, i32 0, i32 0
  %66 = load double, ptr %65, align 8
  %67 = getelementptr inbounds { double, double }, ptr %13, i32 0, i32 1
  %68 = load double, ptr %67, align 8
  %69 = call i32 @wind(double %58, double %60, double %62, double %64, double %66, double %68)
  store i32 %69, ptr %15, align 4
  %70 = load i32, ptr %15, align 4
  %71 = icmp eq i32 %70, 0
  br i1 %71, label %72, label %87

72:                                               ; preds = %56
  %73 = getelementptr inbounds { double, double }, ptr %10, i32 0, i32 0
  %74 = load double, ptr %73, align 8
  %75 = getelementptr inbounds { double, double }, ptr %10, i32 0, i32 1
  %76 = load double, ptr %75, align 8
  %77 = getelementptr inbounds { double, double }, ptr %11, i32 0, i32 0
  %78 = load double, ptr %77, align 8
  %79 = getelementptr inbounds { double, double }, ptr %11, i32 0, i32 1
  %80 = load double, ptr %79, align 8
  %81 = getelementptr inbounds { double, double }, ptr %13, i32 0, i32 0
  %82 = load double, ptr %81, align 8
  %83 = getelementptr inbounds { double, double }, ptr %13, i32 0, i32 1
  %84 = load double, ptr %83, align 8
  %85 = call zeroext i1 @inBetween(double %74, double %76, double %78, double %80, double %82, double %84)
  br i1 %85, label %86, label %87

86:                                               ; preds = %72
  store i1 true, ptr %9, align 1
  br label %125

87:                                               ; preds = %72, %56
  %88 = getelementptr inbounds { double, double }, ptr %12, i32 0, i32 0
  %89 = load double, ptr %88, align 8
  %90 = getelementptr inbounds { double, double }, ptr %12, i32 0, i32 1
  %91 = load double, ptr %90, align 8
  %92 = getelementptr inbounds { double, double }, ptr %13, i32 0, i32 0
  %93 = load double, ptr %92, align 8
  %94 = getelementptr inbounds { double, double }, ptr %13, i32 0, i32 1
  %95 = load double, ptr %94, align 8
  %96 = getelementptr inbounds { double, double }, ptr %10, i32 0, i32 0
  %97 = load double, ptr %96, align 8
  %98 = getelementptr inbounds { double, double }, ptr %10, i32 0, i32 1
  %99 = load double, ptr %98, align 8
  %100 = call i32 @wind(double %89, double %91, double %93, double %95, double %97, double %99)
  store i32 %100, ptr %16, align 4
  %101 = getelementptr inbounds { double, double }, ptr %12, i32 0, i32 0
  %102 = load double, ptr %101, align 8
  %103 = getelementptr inbounds { double, double }, ptr %12, i32 0, i32 1
  %104 = load double, ptr %103, align 8
  %105 = getelementptr inbounds { double, double }, ptr %13, i32 0, i32 0
  %106 = load double, ptr %105, align 8
  %107 = getelementptr inbounds { double, double }, ptr %13, i32 0, i32 1
  %108 = load double, ptr %107, align 8
  %109 = getelementptr inbounds { double, double }, ptr %11, i32 0, i32 0
  %110 = load double, ptr %109, align 8
  %111 = getelementptr inbounds { double, double }, ptr %11, i32 0, i32 1
  %112 = load double, ptr %111, align 8
  %113 = call i32 @wind(double %102, double %104, double %106, double %108, double %110, double %112)
  store i32 %113, ptr %17, align 4
  %114 = load i32, ptr %14, align 4
  %115 = load i32, ptr %15, align 4
  %116 = mul nsw i32 %114, %115
  %117 = icmp slt i32 %116, 0
  br i1 %117, label %118, label %123

118:                                              ; preds = %87
  %119 = load i32, ptr %16, align 4
  %120 = load i32, ptr %17, align 4
  %121 = mul nsw i32 %119, %120
  %122 = icmp slt i32 %121, 0
  br label %123

123:                                              ; preds = %118, %87
  %124 = phi i1 [ false, %87 ], [ %122, %118 ]
  store i1 %124, ptr %9, align 1
  br label %125

125:                                              ; preds = %123, %86, %55
  %126 = load i1, ptr %9, align 1
  ret i1 %126
}