; Function Attrs: mustprogress nofree norecurse nosync nounwind willreturn memory(none) uwtable
define internal fastcc zeroext i1 @intersect(double %0, double %1, double %2, double %3, double %4, double %5, double %6, double %7) unnamed_addr #0 {
  %9 = fsub double %1, %3
  %10 = fsub double %4, %2
  %11 = fsub double %5, %3
  %12 = fsub double %0, %2
  %13 = fneg double %12
  %14 = fmul double %11, %13
  %15 = tail call double @llvm.fmuladd.f64(double %9, double %10, double %14)
  %16 = fcmp ogt double %15, 1.000000e-04
  %17 = fcmp olt double %15, -1.000000e-04
  %18 = sext i1 %17 to i32
  %19 = select i1 %16, i32 1, i32 %18
  %20 = icmp eq i32 %19, 0
  br i1 %20, label %21, label %36

21:                                               ; preds = %8
  %22 = fcmp une double %0, %2
  br i1 %22, label %23, label %30

23:                                               ; preds = %21
  %24 = fcmp olt double %0, %4
  %25 = fcmp olt double %4, %2
  %or.cond.i = and i1 %24, %25
  br i1 %or.cond.i, label %inBetween.exit.thread, label %26

26:                                               ; preds = %23
  %27 = fcmp olt double %2, %4
  %28 = fcmp olt double %4, %0
  %29 = and i1 %27, %28
  br i1 %29, label %inBetween.exit.thread, label %36

30:                                               ; preds = %21
  %31 = fcmp olt double %1, %5
  %32 = fcmp olt double %5, %3
  %or.cond20.i = select i1 %31, i1 %32, i1 false
  br i1 %or.cond20.i, label %inBetween.exit.thread, label %inBetween.exit

inBetween.exit:                                   ; preds = %30
  %33 = fcmp olt double %3, %5
  %34 = fcmp olt double %5, %1
  %35 = select i1 %33, i1 %34, i1 false
  br i1 %35, label %inBetween.exit.thread, label %36

36:                                               ; preds = %26, %inBetween.exit, %8
  %37 = fsub double %6, %2
  %38 = fsub double %7, %3
  %39 = fmul double %38, %13
  %40 = tail call double @llvm.fmuladd.f64(double %9, double %37, double %39)
  %41 = fcmp ogt double %40, 1.000000e-04
  %42 = fcmp olt double %40, -1.000000e-04
  %43 = sext i1 %42 to i32
  %44 = select i1 %41, i32 1, i32 %43
  %45 = icmp eq i32 %44, 0
  br i1 %45, label %46, label %61

46:                                               ; preds = %36
  %47 = fcmp une double %0, %2
  br i1 %47, label %48, label %55

48:                                               ; preds = %46
  %49 = fcmp olt double %0, %6
  %50 = fcmp olt double %6, %2
  %or.cond.i41 = and i1 %49, %50
  br i1 %or.cond.i41, label %inBetween.exit.thread, label %51

51:                                               ; preds = %48
  %52 = fcmp olt double %2, %6
  %53 = fcmp olt double %6, %0
  %54 = and i1 %52, %53
  br i1 %54, label %inBetween.exit.thread, label %61

55:                                               ; preds = %46
  %56 = fcmp olt double %1, %7
  %57 = fcmp olt double %7, %3
  %or.cond20.i39 = select i1 %56, i1 %57, i1 false
  br i1 %or.cond20.i39, label %inBetween.exit.thread, label %inBetween.exit42

inBetween.exit42:                                 ; preds = %55
  %58 = fcmp olt double %3, %7
  %59 = fcmp olt double %7, %1
  %60 = select i1 %58, i1 %59, i1 false
  br i1 %60, label %inBetween.exit.thread, label %61

61:                                               ; preds = %51, %inBetween.exit42, %36
  %62 = fsub double %5, %7
  %63 = fsub double %0, %6
  %64 = fsub double %1, %7
  %65 = fsub double %4, %6
  %66 = fneg double %65
  %67 = fmul double %64, %66
  %68 = tail call double @llvm.fmuladd.f64(double %62, double %63, double %67)
  %69 = fcmp ogt double %68, 1.000000e-04
  %70 = fcmp olt double %68, -1.000000e-04
  %71 = sext i1 %70 to i32
  %72 = select i1 %69, i32 1, i32 %71
  %73 = fsub double %2, %6
  %74 = fsub double %3, %7
  %75 = fmul double %74, %66
  %76 = tail call double @llvm.fmuladd.f64(double %62, double %73, double %75)
  %77 = fcmp ogt double %76, 1.000000e-04
  %78 = fcmp olt double %76, -1.000000e-04
  %79 = sext i1 %78 to i32
  %80 = select i1 %77, i32 1, i32 %79
  %81 = mul nsw i32 %44, %19
  %82 = icmp slt i32 %81, 0
  %83 = mul nsw i32 %72, %80
  %84 = icmp slt i32 %83, 0
  %85 = select i1 %82, i1 %84, i1 false
  br label %inBetween.exit.thread

inBetween.exit.thread:                            ; preds = %55, %48, %30, %23, %51, %26, %inBetween.exit42, %inBetween.exit, %61
  %.0 = phi i1 [ %85, %61 ], [ true, %inBetween.exit ], [ true, %inBetween.exit42 ], [ true, %26 ], [ true, %51 ], [ true, %23 ], [ true, %30 ], [ true, %48 ], [ true, %55 ]
  ret i1 %.0
}